; Function Attrs: mustprogress nofree norecurse nosync nounwind willreturn memory(read, argmem: readwrite, inaccessiblemem: none) uwtable
define i32 @ff_tget_long(ptr noundef captures(none) %0, i32 noundef %1) local_unnamed_addr #2 {
  %.not = icmp eq i32 %1, 0
  %3 = getelementptr inbounds nuw i8, ptr %0, i64 8
  %4 = load ptr, ptr %3, align 8, !tbaa !10
  %5 = load ptr, ptr %0, align 8, !tbaa !14
  %6 = ptrtoint ptr %4 to i64
  %7 = ptrtoint ptr %5 to i64
  %8 = sub i64 %6, %7
  %9 = icmp slt i64 %8, 4
  br i1 %.not, label %15, label %10

10:                                               ; preds = %2
  br i1 %9, label %11, label %12

11:                                               ; preds = %10
  store ptr %4, ptr %0, align 8, !tbaa !14
  br label %bytestream2_get_le32.exit

12:                                               ; preds = %10
  %13 = getelementptr inbounds nuw i8, ptr %5, i64 4
  store ptr %13, ptr %0, align 8, !tbaa !15
  %14 = load i32, ptr %5, align 1, !tbaa !16
  br label %bytestream2_get_le32.exit

15:                                               ; preds = %2
  br i1 %9, label %16, label %17

16:                                               ; preds = %15
  store ptr %4, ptr %0, align 8, !tbaa !14
  br label %bytestream2_get_le32.exit

17:                                               ; preds = %15
  %18 = getelementptr inbounds nuw i8, ptr %5, i64 4
  store ptr %18, ptr %0, align 8, !tbaa !15
  %19 = load i32, ptr %5, align 1, !tbaa !16
  %20 = tail call i32 @llvm.bswap.i32(i32 %19)
  br label %bytestream2_get_le32.exit

bytestream2_get_le32.exit:                        ; preds = %17, %16, %12, %11
  %21 = phi i32 [ 0, %11 ], [ %14, %12 ], [ 0, %16 ], [ %20, %17 ]
  ret i32 %21
}